target datalayout = "e-m:e-p270:32:32-p271:32:32-p272:64:64-i64:64-i128:128-f80:128-n8:16:32:64-S128"
target triple = "x86_64-pc-linux-gnu"

%class.ConcurrentLocksDump = type <{ ptr, ptr, i8, [7 x i8] }>
%class.ThreadConcurrentLocks = type { ptr, ptr, ptr }

@_ZN21ThreadConcurrentLocksD1Ev = hidden unnamed_addr alias void (ptr), ptr @_ZN21ThreadConcurrentLocksD2Ev

; Function Attrs: mustprogress nounwind uwtable
define linkonce_odr hidden void @_ZN12CHeapObjBasedlEPv(ptr noundef %0) #1 comdat align 2 {
  %2 = alloca ptr, align 8
  store ptr %0, ptr %2, align 8
  %3 = load ptr, ptr %2, align 8
  call void @_Z8FreeHeapPv(ptr noundef %3)
  ret void
}

; Function Attrs: mustprogress nounwind uwtable
define linkonce_odr hidden void @_ZN8CHeapObjIL8MEMFLAGS9EEdlEPv(ptr noundef %0) #1 comdat align 2 {
  %2 = alloca ptr, align 8
  store ptr %0, ptr %2, align 8
  %3 = load ptr, ptr %2, align 8
  call void @_ZN12CHeapObjBasedlEPv(ptr noundef %3) #8
  ret void
}

; Function Attrs: mustprogress nounwind uwtable
define linkonce_odr hidden noundef ptr @_ZN21ThreadConcurrentLocks4nextEv(ptr noundef nonnull align 8 dereferenceable(24) %0) #1 comdat align 2 {
  %2 = alloca ptr, align 8
  store ptr %0, ptr %2, align 8
  %3 = load ptr, ptr %2, align 8
  %4 = getelementptr inbounds %class.ThreadConcurrentLocks, ptr %3, i32 0, i32 1
  %5 = load ptr, ptr %4, align 8
  ret ptr %5
}

; Function Attrs: mustprogress nounwind uwtable
define hidden void @_ZN19ConcurrentLocksDumpD2Ev(ptr noundef nonnull align 8 dereferenceable(17) %0) unnamed_addr #1 align 2 {
  %2 = alloca ptr, align 8
  %3 = alloca ptr, align 8
  %4 = alloca ptr, align 8
  store ptr %0, ptr %2, align 8
  %5 = load ptr, ptr %2, align 8
  %6 = getelementptr inbounds %class.ConcurrentLocksDump, ptr %5, i32 0, i32 2
  %7 = load i8, ptr %6, align 8
  %8 = trunc i8 %7 to i1
  br i1 %8, label %9, label %10

9:                                                ; preds = %1
  br label %24

10:                                               ; preds = %1
  %11 = getelementptr inbounds %class.ConcurrentLocksDump, ptr %5, i32 0, i32 0
  %12 = load ptr, ptr %11, align 8
  store ptr %12, ptr %3, align 8
  br label %13

13:                                               ; preds = %23, %10
  %14 = load ptr, ptr %3, align 8
  %15 = icmp ne ptr %14, null
  br i1 %15, label %16, label %24

16:                                               ; preds = %13
  %17 = load ptr, ptr %3, align 8
  store ptr %17, ptr %4, align 8
  %18 = load ptr, ptr %3, align 8
  %19 = call noundef ptr @_ZN21ThreadConcurrentLocks4nextEv(ptr noundef nonnull align 8 dereferenceable(24) %18)
  store ptr %19, ptr %3, align 8
  %20 = load ptr, ptr %4, align 8
  %21 = icmp eq ptr %20, null
  br i1 %21, label %23, label %22

22:                                               ; preds = %16
  call void @_ZN21ThreadConcurrentLocksD1Ev(ptr noundef nonnull align 8 dereferenceable(24) %20) #8
  call void @_ZN8CHeapObjIL8MEMFLAGS9EEdlEPv(ptr noundef %20) #8
  br label %23

23:                                               ; preds = %22, %16
  br label %13, !llvm.loop !25

24:                                               ; preds = %13, %9
  ret void
}