; Function Attrs: mustprogress nounwind uwtable
define hidden void @_ZN19ConcurrentLocksDumpD2Ev(ptr nocapture noundef nonnull readonly align 8 dereferenceable(17) %0) unnamed_addr #0 align 2 {
  %2 = getelementptr inbounds i8, ptr %0, i64 16
  %3 = load i8, ptr %2, align 8
  %4 = trunc i8 %3 to i1
  %5 = load ptr, ptr %0, align 8
  %.not5 = icmp eq ptr %5, null
  %or.cond = select i1 %4, i1 true, i1 %.not5
  br i1 %or.cond, label %.loopexit, label %.lr.ph

.lr.ph:                                           ; preds = %1, %_ZN21ThreadConcurrentLocksD2Ev.exit
  %.06 = phi ptr [ %7, %_ZN21ThreadConcurrentLocksD2Ev.exit ], [ %5, %1 ]
  %6 = getelementptr inbounds i8, ptr %.06, i64 8
  %7 = load ptr, ptr %6, align 8
  %8 = load ptr, ptr %.06, align 8
  %9 = load i32, ptr %8, align 4
  %10 = icmp sgt i32 %9, 0
  br i1 %10, label %.lr.ph.i, label %._crit_edge.i

.lr.ph.i:                                         ; preds = %.lr.ph, %_ZN9OopHandle7releaseEP10OopStorage.exit.i
  %11 = phi i32 [ %21, %_ZN9OopHandle7releaseEP10OopStorage.exit.i ], [ %9, %.lr.ph ]
  %12 = phi ptr [ %22, %_ZN9OopHandle7releaseEP10OopStorage.exit.i ], [ %8, %.lr.ph ]
  %indvars.iv.i = phi i64 [ %indvars.iv.next.i, %_ZN9OopHandle7releaseEP10OopStorage.exit.i ], [ 0, %.lr.ph ]
  %13 = getelementptr inbounds i8, ptr %12, i64 8
  %14 = load ptr, ptr %13, align 8
  %15 = getelementptr inbounds %class.OopHandle, ptr %14, i64 %indvars.iv.i
  %16 = load ptr, ptr %15, align 8
  %.not.i.i = icmp eq ptr %16, null
  br i1 %.not.i.i, label %_ZN9OopHandle7releaseEP10OopStorage.exit.i, label %17

17:                                               ; preds = %.lr.ph.i
  %18 = load ptr, ptr @_ZL23_thread_service_storage, align 8
  %19 = load ptr, ptr @_ZN14AccessInternal15RuntimeDispatchILm548932EP7oopDescLNS_11BarrierTypeE0EE11_store_funcE, align 8
  tail call void %19(ptr noundef nonnull %16, ptr noundef null) #12
  %20 = load ptr, ptr %15, align 8
  tail call void @_ZN10OopStorage7releaseEPKP7oopDesc(ptr noundef nonnull align 8 dereferenceable(126) %18, ptr noundef %20) #12
  store ptr null, ptr %15, align 8
  %.pre.i = load ptr, ptr %.06, align 8
  %.pre8.i = load i32, ptr %.pre.i, align 4
  br label %_ZN9OopHandle7releaseEP10OopStorage.exit.i

_ZN9OopHandle7releaseEP10OopStorage.exit.i:       ; preds = %17, %.lr.ph.i
  %21 = phi i32 [ %11, %.lr.ph.i ], [ %.pre8.i, %17 ]
  %22 = phi ptr [ %12, %.lr.ph.i ], [ %.pre.i, %17 ]
  %indvars.iv.next.i = add nuw nsw i64 %indvars.iv.i, 1
  %23 = sext i32 %21 to i64
  %24 = icmp slt i64 %indvars.iv.next.i, %23
  br i1 %24, label %.lr.ph.i, label %._crit_edge.i, !llvm.loop !31

._crit_edge.i:                                    ; preds = %_ZN9OopHandle7releaseEP10OopStorage.exit.i, %.lr.ph
  %.lcssa.i = phi ptr [ %8, %.lr.ph ], [ %22, %_ZN9OopHandle7releaseEP10OopStorage.exit.i ]
  %25 = getelementptr inbounds i8, ptr %.lcssa.i, i64 16
  %26 = load i64, ptr %25, align 8
  %27 = and i64 %26, 1
  %.not.i4.i = icmp eq i64 %27, 0
  br i1 %.not.i4.i, label %_ZN21ThreadConcurrentLocksD2Ev.exit, label %28

28:                                               ; preds = %._crit_edge.i
  store i32 0, ptr %.lcssa.i, align 4
  tail call void @_ZN26GrowableArrayWithAllocatorI9OopHandle13GrowableArrayIS0_EE13shrink_to_fitEv(ptr noundef nonnull align 8 dereferenceable(16) %.lcssa.i)
  br label %_ZN21ThreadConcurrentLocksD2Ev.exit

_ZN21ThreadConcurrentLocksD2Ev.exit:              ; preds = %._crit_edge.i, %28
  tail call void @_ZN6AnyObjdlEPv(ptr noundef nonnull %.lcssa.i) #12
  tail call void @_Z8FreeHeapPv(ptr noundef nonnull %.06) #12
  %.not = icmp eq ptr %7, null
  br i1 %.not, label %.loopexit, label %.lr.ph, !llvm.loop !32

.loopexit:                                        ; preds = %_ZN21ThreadConcurrentLocksD2Ev.exit, %1
  ret void
}